target datalayout = "e-m:e-p270:32:32-p271:32:32-p272:64:64-i64:64-i128:128-f80:128-n8:16:32:64-S128"
target triple = "x86_64-pc-linux-gnu"

%struct.ossl_quic_tx_packetiser_st = type { %struct.ossl_quic_tx_packetiser_args_st, ptr, i64, ptr, ptr, %struct.quic_fifd_st, [3 x i64], %struct.OSSL_TIME, i64, i16, %struct.ossl_quic_frame_conn_close_st, i64, i64, [4 x %struct.txp_el], ptr, ptr, ptr, ptr, ptr }
%struct.ossl_quic_tx_packetiser_args_st = type { %struct.quic_conn_id_st, %struct.quic_conn_id_st, %union.bio_addr_st, i32, ptr, ptr, ptr, ptr, ptr, ptr, ptr, ptr, ptr, ptr, ptr, ptr, ptr, ptr, ptr, i32, [3 x ptr] }
%struct.quic_conn_id_st = type { i8, [20 x i8] }
%union.bio_addr_st = type { %struct.sockaddr_in6, [84 x i8] }
%struct.sockaddr_in6 = type { i16, i16, i32, %struct.in6_addr, i32 }
%struct.in6_addr = type { %union.anon }
%union.anon = type { [4 x i32] }
%struct.quic_fifd_st = type { ptr, ptr, ptr, ptr, ptr, ptr, ptr, ptr, ptr, ptr, ptr, ptr, ptr }
%struct.OSSL_TIME = type { i64 }
%struct.ossl_quic_frame_conn_close_st = type { i8, i64, i64, ptr, i64 }
%struct.txp_el = type { ptr, i64, ptr, i64 }
%struct.tx_helper = type { ptr, i64, i64, i64, i64, i64, i32, i8, %struct.anon }
%struct.anon = type { ptr, %struct.wpacket_st, i8 }
%struct.wpacket_st = type { ptr, ptr, i64, i64, i64, ptr, i8 }
%struct.ossl_qtx_iovec_st = type { ptr, i64 }
%struct.PACKET = type { ptr, i64 }

@.str = private unnamed_addr constant [31 x i8] c"../openssl/ssl/quic/quic_txp.c\00", align 1

; Function Attrs: nounwind uwtable
define internal i32 @txp_el_ensure_iovec(ptr noundef %0, i64 noundef %1) #0 {
  %3 = alloca i32, align 4
  %4 = alloca ptr, align 8
  %5 = alloca i64, align 8
  %6 = alloca ptr, align 8
  %7 = alloca i32, align 4
  store ptr %0, ptr %4, align 8, !tbaa !223
  store i64 %1, ptr %5, align 8, !tbaa !28
  call void @llvm.lifetime.start.p0(i64 8, ptr %6) #7
  %8 = load ptr, ptr %4, align 8, !tbaa !223
  %9 = getelementptr inbounds nuw %struct.txp_el, ptr %8, i32 0, i32 3
  %10 = load i64, ptr %9, align 8, !tbaa !231
  %11 = load i64, ptr %5, align 8, !tbaa !28
  %12 = icmp uge i64 %10, %11
  br i1 %12, label %13, label %14

13:                                               ; preds = %2
  store i32 1, ptr %3, align 4
  store i32 1, ptr %7, align 4
  br label %43

14:                                               ; preds = %2
  %15 = load ptr, ptr %4, align 8, !tbaa !223
  %16 = getelementptr inbounds nuw %struct.txp_el, ptr %15, i32 0, i32 3
  %17 = load i64, ptr %16, align 8, !tbaa !231
  %18 = icmp ne i64 %17, 0
  br i1 %18, label %19, label %24

19:                                               ; preds = %14
  %20 = load ptr, ptr %4, align 8, !tbaa !223
  %21 = getelementptr inbounds nuw %struct.txp_el, ptr %20, i32 0, i32 3
  %22 = load i64, ptr %21, align 8, !tbaa !231
  %23 = mul i64 %22, 2
  br label %25

24:                                               ; preds = %14
  br label %25

25:                                               ; preds = %24, %19
  %26 = phi i64 [ %23, %19 ], [ 8, %24 ]
  store i64 %26, ptr %5, align 8, !tbaa !28
  %27 = load ptr, ptr %4, align 8, !tbaa !223
  %28 = getelementptr inbounds nuw %struct.txp_el, ptr %27, i32 0, i32 2
  %29 = load ptr, ptr %28, align 8, !tbaa !75
  %30 = load i64, ptr %5, align 8, !tbaa !28
  %31 = mul i64 16, %30
  %32 = call ptr @CRYPTO_realloc(ptr noundef %29, i64 noundef %31, ptr noundef @.str, i32 noundef 3164)
  store ptr %32, ptr %6, align 8, !tbaa !232
  %33 = load ptr, ptr %6, align 8, !tbaa !232
  %34 = icmp eq ptr %33, null
  br i1 %34, label %35, label %36

35:                                               ; preds = %25
  store i32 0, ptr %3, align 4
  store i32 1, ptr %7, align 4
  br label %43

36:                                               ; preds = %25
  %37 = load ptr, ptr %6, align 8, !tbaa !232
  %38 = load ptr, ptr %4, align 8, !tbaa !223
  %39 = getelementptr inbounds nuw %struct.txp_el, ptr %38, i32 0, i32 2
  store ptr %37, ptr %39, align 8, !tbaa !75
  %40 = load i64, ptr %5, align 8, !tbaa !28
  %41 = load ptr, ptr %4, align 8, !tbaa !223
  %42 = getelementptr inbounds nuw %struct.txp_el, ptr %41, i32 0, i32 3
  store i64 %40, ptr %42, align 8, !tbaa !231
  store i32 1, ptr %3, align 4
  store i32 1, ptr %7, align 4
  br label %43

43:                                               ; preds = %36, %35, %13
  call void @llvm.lifetime.end.p0(i64 8, ptr %6) #7
  %44 = load i32, ptr %3, align 4
  ret i32 %44
}

; Function Attrs: inlinehint nounwind uwtable
define internal i32 @PACKET_buf_init(ptr noundef %0, ptr noundef %1, i64 noundef %2) #4 {
  %4 = alloca i32, align 4
  %5 = alloca ptr, align 8
  %6 = alloca ptr, align 8
  %7 = alloca i64, align 8
  store ptr %0, ptr %5, align 8, !tbaa !53
  store ptr %1, ptr %6, align 8, !tbaa !81
  store i64 %2, ptr %7, align 8, !tbaa !28
  %8 = load i64, ptr %7, align 8, !tbaa !28
  %9 = icmp ugt i64 %8, 9223372036854775807
  br i1 %9, label %10, label %11

10:                                               ; preds = %3
  store i32 0, ptr %4, align 4
  br label %18

11:                                               ; preds = %3
  %12 = load ptr, ptr %6, align 8, !tbaa !81
  %13 = load ptr, ptr %5, align 8, !tbaa !53
  %14 = getelementptr inbounds nuw %struct.PACKET, ptr %13, i32 0, i32 0
  store ptr %12, ptr %14, align 8, !tbaa !228
  %15 = load i64, ptr %7, align 8, !tbaa !28
  %16 = load ptr, ptr %5, align 8, !tbaa !53
  %17 = getelementptr inbounds nuw %struct.PACKET, ptr %16, i32 0, i32 1
  store i64 %15, ptr %17, align 8, !tbaa !230
  store i32 1, ptr %4, align 4
  br label %18

18:                                               ; preds = %11, %10
  %19 = load i32, ptr %4, align 4
  ret i32 %19
}

; Function Attrs: nounwind uwtable
define internal i32 @tx_helper_append_iovec(ptr noundef %0, ptr noundef %1, i64 noundef %2) #0 {
  %4 = alloca i32, align 4
  %5 = alloca ptr, align 8
  %6 = alloca ptr, align 8
  %7 = alloca i64, align 8
  %8 = alloca ptr, align 8
  %9 = alloca i32, align 4
  store ptr %0, ptr %5, align 8, !tbaa !148
  store ptr %1, ptr %6, align 8, !tbaa !81
  store i64 %2, ptr %7, align 8, !tbaa !28
  call void @llvm.lifetime.start.p0(i64 8, ptr %8) #7
  %10 = load ptr, ptr %5, align 8, !tbaa !148
  %11 = getelementptr inbounds nuw %struct.tx_helper, ptr %10, i32 0, i32 0
  %12 = load ptr, ptr %11, align 8, !tbaa !213
  %13 = getelementptr inbounds nuw %struct.ossl_quic_tx_packetiser_st, ptr %12, i32 0, i32 13
  %14 = load ptr, ptr %5, align 8, !tbaa !148
  %15 = getelementptr inbounds nuw %struct.tx_helper, ptr %14, i32 0, i32 6
  %16 = load i32, ptr %15, align 8, !tbaa !214
  %17 = zext i32 %16 to i64
  %18 = getelementptr inbounds nuw [4 x %struct.txp_el], ptr %13, i64 0, i64 %17
  store ptr %18, ptr %8, align 8, !tbaa !223
  %19 = load i64, ptr %7, align 8, !tbaa !28
  %20 = icmp eq i64 %19, 0
  br i1 %20, label %21, label %22

21:                                               ; preds = %3
  store i32 1, ptr %4, align 4
  store i32 1, ptr %9, align 4
  br label %77

22:                                               ; preds = %3
  %23 = load ptr, ptr %5, align 8, !tbaa !148
  %24 = getelementptr inbounds nuw %struct.tx_helper, ptr %23, i32 0, i32 7
  %25 = load i8, ptr %24, align 4
  %26 = lshr i8 %25, 1
  %27 = and i8 %26, 1
  %28 = zext i8 %27 to i32
  %29 = icmp ne i32 %28, 0
  %30 = xor i1 %29, true
  %31 = zext i1 %30 to i32
  %32 = icmp ne i32 %31, 0
  %33 = xor i1 %32, true
  %34 = xor i1 %33, true
  %35 = zext i1 %34 to i32
  %36 = sext i32 %35 to i64
  %37 = call i64 @llvm.expect.i64(i64 %36, i64 1)
  %38 = icmp ne i64 %37, 0
  br i1 %38, label %40, label %39

39:                                               ; preds = %22
  store i32 0, ptr %4, align 4
  store i32 1, ptr %9, align 4
  br label %77

40:                                               ; preds = %22
  %41 = load ptr, ptr %8, align 8, !tbaa !223
  %42 = load ptr, ptr %5, align 8, !tbaa !148
  %43 = getelementptr inbounds nuw %struct.tx_helper, ptr %42, i32 0, i32 5
  %44 = load i64, ptr %43, align 8, !tbaa !217
  %45 = add i64 %44, 1
  %46 = call i32 @txp_el_ensure_iovec(ptr noundef %41, i64 noundef %45)
  %47 = icmp ne i32 %46, 0
  br i1 %47, label %49, label %48

48:                                               ; preds = %40
  store i32 0, ptr %4, align 4
  store i32 1, ptr %9, align 4
  br label %77

49:                                               ; preds = %40
  %50 = load ptr, ptr %6, align 8, !tbaa !81
  %51 = load ptr, ptr %8, align 8, !tbaa !223
  %52 = getelementptr inbounds nuw %struct.txp_el, ptr %51, i32 0, i32 2
  %53 = load ptr, ptr %52, align 8, !tbaa !75
  %54 = load ptr, ptr %5, align 8, !tbaa !148
  %55 = getelementptr inbounds nuw %struct.tx_helper, ptr %54, i32 0, i32 5
  %56 = load i64, ptr %55, align 8, !tbaa !217
  %57 = getelementptr inbounds nuw %struct.ossl_qtx_iovec_st, ptr %53, i64 %56
  %58 = getelementptr inbounds nuw %struct.ossl_qtx_iovec_st, ptr %57, i32 0, i32 0
  store ptr %50, ptr %58, align 8, !tbaa !225
  %59 = load i64, ptr %7, align 8, !tbaa !28
  %60 = load ptr, ptr %8, align 8, !tbaa !223
  %61 = getelementptr inbounds nuw %struct.txp_el, ptr %60, i32 0, i32 2
  %62 = load ptr, ptr %61, align 8, !tbaa !75
  %63 = load ptr, ptr %5, align 8, !tbaa !148
  %64 = getelementptr inbounds nuw %struct.tx_helper, ptr %63, i32 0, i32 5
  %65 = load i64, ptr %64, align 8, !tbaa !217
  %66 = getelementptr inbounds nuw %struct.ossl_qtx_iovec_st, ptr %62, i64 %65
  %67 = getelementptr inbounds nuw %struct.ossl_qtx_iovec_st, ptr %66, i32 0, i32 1
  store i64 %59, ptr %67, align 8, !tbaa !227
  %68 = load ptr, ptr %5, align 8, !tbaa !148
  %69 = getelementptr inbounds nuw %struct.tx_helper, ptr %68, i32 0, i32 5
  %70 = load i64, ptr %69, align 8, !tbaa !217
  %71 = add i64 %70, 1
  store i64 %71, ptr %69, align 8, !tbaa !217
  %72 = load i64, ptr %7, align 8, !tbaa !28
  %73 = load ptr, ptr %5, align 8, !tbaa !148
  %74 = getelementptr inbounds nuw %struct.tx_helper, ptr %73, i32 0, i32 2
  %75 = load i64, ptr %74, align 8, !tbaa !153
  %76 = add i64 %75, %72
  store i64 %76, ptr %74, align 8, !tbaa !153
  store i32 1, ptr %4, align 4
  store i32 1, ptr %9, align 4
  br label %77

77:                                               ; preds = %49, %48, %39, %21
  call void @llvm.lifetime.end.p0(i64 8, ptr %8) #7
  %78 = load i32, ptr %4, align 4
  ret i32 %78
}

; Function Attrs: nounwind uwtable
define internal void @tx_helper_end(ptr noundef %0, i32 noundef %1) #0 {
  %3 = alloca ptr, align 8
  %4 = alloca i32, align 4
  store ptr %0, ptr %3, align 8, !tbaa !148
  store i32 %1, ptr %4, align 4, !tbaa !43
  %5 = load i32, ptr %4, align 4, !tbaa !43
  %6 = icmp ne i32 %5, 0
  br i1 %6, label %7, label %12

7:                                                ; preds = %2
  %8 = load ptr, ptr %3, align 8, !tbaa !148
  %9 = getelementptr inbounds nuw %struct.tx_helper, ptr %8, i32 0, i32 8
  %10 = getelementptr inbounds nuw %struct.anon, ptr %9, i32 0, i32 1
  %11 = call i32 @WPACKET_finish(ptr noundef %10)
  br label %16

12:                                               ; preds = %2
  %13 = load ptr, ptr %3, align 8, !tbaa !148
  %14 = getelementptr inbounds nuw %struct.tx_helper, ptr %13, i32 0, i32 8
  %15 = getelementptr inbounds nuw %struct.anon, ptr %14, i32 0, i32 1
  call void @WPACKET_cleanup(ptr noundef %15)
  br label %16

16:                                               ; preds = %12, %7
  %17 = load ptr, ptr %3, align 8, !tbaa !148
  %18 = getelementptr inbounds nuw %struct.tx_helper, ptr %17, i32 0, i32 8
  %19 = getelementptr inbounds nuw %struct.anon, ptr %18, i32 0, i32 2
  %20 = load i8, ptr %19, align 8
  %21 = and i8 %20, -2
  %22 = or i8 %21, 0
  store i8 %22, ptr %19, align 8
  %23 = load ptr, ptr %3, align 8, !tbaa !148
  %24 = getelementptr inbounds nuw %struct.tx_helper, ptr %23, i32 0, i32 8
  %25 = getelementptr inbounds nuw %struct.anon, ptr %24, i32 0, i32 0
  store ptr null, ptr %25, align 8, !tbaa !219
  ret void
}

; Function Attrs: nounwind uwtable
define internal i32 @tx_helper_commit(ptr noundef %0) #0 {
  %2 = alloca i32, align 4
  %3 = alloca ptr, align 8
  %4 = alloca i64, align 8
  %5 = alloca i32, align 4
  %6 = alloca i64, align 8
  %7 = alloca i32, align 4
  %8 = alloca %struct.PACKET, align 8
  store ptr %0, ptr %3, align 8, !tbaa !148
  call void @llvm.lifetime.start.p0(i64 8, ptr %4) #7
  store i64 0, ptr %4, align 8, !tbaa !28
  %9 = load ptr, ptr %3, align 8, !tbaa !148
  %10 = getelementptr inbounds nuw %struct.tx_helper, ptr %9, i32 0, i32 8
  %11 = getelementptr inbounds nuw %struct.anon, ptr %10, i32 0, i32 2
  %12 = load i8, ptr %11, align 8
  %13 = and i8 %12, 1
  %14 = zext i8 %13 to i32
  %15 = icmp ne i32 %14, 0
  br i1 %15, label %17, label %16

16:                                               ; preds = %1
  store i32 0, ptr %2, align 4
  store i32 1, ptr %5, align 4
  br label %104

17:                                               ; preds = %1
  %18 = load ptr, ptr %3, align 8, !tbaa !148
  %19 = getelementptr inbounds nuw %struct.tx_helper, ptr %18, i32 0, i32 8
  %20 = getelementptr inbounds nuw %struct.anon, ptr %19, i32 0, i32 1
  %21 = call i32 @WPACKET_get_total_written(ptr noundef %20, ptr noundef %4)
  %22 = icmp ne i32 %21, 0
  br i1 %22, label %25, label %23

23:                                               ; preds = %17
  %24 = load ptr, ptr %3, align 8, !tbaa !148
  call void @tx_helper_end(ptr noundef %24, i32 noundef 0)
  store i32 0, ptr %2, align 4
  store i32 1, ptr %5, align 4
  br label %104

25:                                               ; preds = %17
  %26 = load ptr, ptr %3, align 8, !tbaa !148
  %27 = load ptr, ptr %3, align 8, !tbaa !148
  %28 = getelementptr inbounds nuw %struct.tx_helper, ptr %27, i32 0, i32 8
  %29 = getelementptr inbounds nuw %struct.anon, ptr %28, i32 0, i32 0
  %30 = load ptr, ptr %29, align 8, !tbaa !219
  %31 = load i64, ptr %4, align 8, !tbaa !28
  %32 = call i32 @tx_helper_append_iovec(ptr noundef %26, ptr noundef %30, i64 noundef %31)
  %33 = icmp ne i32 %32, 0
  br i1 %33, label %36, label %34

34:                                               ; preds = %25
  %35 = load ptr, ptr %3, align 8, !tbaa !148
  call void @tx_helper_end(ptr noundef %35, i32 noundef 0)
  store i32 0, ptr %2, align 4
  store i32 1, ptr %5, align 4
  br label %104

36:                                               ; preds = %25
  %37 = load ptr, ptr %3, align 8, !tbaa !148
  %38 = getelementptr inbounds nuw %struct.tx_helper, ptr %37, i32 0, i32 0
  %39 = load ptr, ptr %38, align 8, !tbaa !213
  %40 = getelementptr inbounds nuw %struct.ossl_quic_tx_packetiser_st, ptr %39, i32 0, i32 14
  %41 = load ptr, ptr %40, align 8, !tbaa !193
  %42 = icmp ne ptr %41, null
  br i1 %42, label %43, label %97

43:                                               ; preds = %36
  %44 = load i64, ptr %4, align 8, !tbaa !28
  %45 = icmp ugt i64 %44, 0
  br i1 %45, label %46, label %97

46:                                               ; preds = %43
  call void @llvm.lifetime.start.p0(i64 8, ptr %6) #7
  call void @llvm.lifetime.start.p0(i64 4, ptr %7) #7
  store i32 514, ptr %7, align 4, !tbaa !43
  call void @llvm.lifetime.start.p0(i64 16, ptr %8) #7
  %47 = load ptr, ptr %3, align 8, !tbaa !148
  %48 = getelementptr inbounds nuw %struct.tx_helper, ptr %47, i32 0, i32 8
  %49 = getelementptr inbounds nuw %struct.anon, ptr %48, i32 0, i32 0
  %50 = load ptr, ptr %49, align 8, !tbaa !219
  %51 = load i64, ptr %4, align 8, !tbaa !28
  %52 = call i32 @PACKET_buf_init(ptr noundef %8, ptr noundef %50, i64 noundef %51)
  %53 = icmp ne i32 %52, 0
  br i1 %53, label %54, label %57

54:                                               ; preds = %46
  %55 = call i32 @ossl_quic_wire_peek_frame_header(ptr noundef %8, ptr noundef %6, ptr noundef null)
  %56 = icmp ne i32 %55, 0
  br i1 %56, label %59, label %57

57:                                               ; preds = %54, %46
  %58 = load ptr, ptr %3, align 8, !tbaa !148
  call void @tx_helper_end(ptr noundef %58, i32 noundef 0)
  store i32 0, ptr %2, align 4
  store i32 1, ptr %5, align 4
  br label %94

59:                                               ; preds = %54
  %60 = load i64, ptr %6, align 8, !tbaa !28
  %61 = icmp eq i64 %60, 0
  br i1 %61, label %62, label %63

62:                                               ; preds = %59
  store i32 516, ptr %7, align 4, !tbaa !43
  br label %72

63:                                               ; preds = %59
  %64 = load i64, ptr %6, align 8, !tbaa !28
  %65 = and i64 %64, -8
  %66 = icmp eq i64 %65, 8
  br i1 %66, label %70, label %67

67:                                               ; preds = %63
  %68 = load i64, ptr %6, align 8, !tbaa !28
  %69 = icmp eq i64 %68, 6
  br i1 %69, label %70, label %71

70:                                               ; preds = %67, %63
  store i32 515, ptr %7, align 4, !tbaa !43
  br label %71

71:                                               ; preds = %70, %67
  br label %72

72:                                               ; preds = %71, %62
  %73 = load ptr, ptr %3, align 8, !tbaa !148
  %74 = getelementptr inbounds nuw %struct.tx_helper, ptr %73, i32 0, i32 0
  %75 = load ptr, ptr %74, align 8, !tbaa !213
  %76 = getelementptr inbounds nuw %struct.ossl_quic_tx_packetiser_st, ptr %75, i32 0, i32 14
  %77 = load ptr, ptr %76, align 8, !tbaa !193
  %78 = load i32, ptr %7, align 4, !tbaa !43
  %79 = load ptr, ptr %3, align 8, !tbaa !148
  %80 = getelementptr inbounds nuw %struct.tx_helper, ptr %79, i32 0, i32 8
  %81 = getelementptr inbounds nuw %struct.anon, ptr %80, i32 0, i32 0
  %82 = load ptr, ptr %81, align 8, !tbaa !219
  %83 = load i64, ptr %4, align 8, !tbaa !28
  %84 = load ptr, ptr %3, align 8, !tbaa !148
  %85 = getelementptr inbounds nuw %struct.tx_helper, ptr %84, i32 0, i32 0
  %86 = load ptr, ptr %85, align 8, !tbaa !213
  %87 = getelementptr inbounds nuw %struct.ossl_quic_tx_packetiser_st, ptr %86, i32 0, i32 16
  %88 = load ptr, ptr %87, align 8, !tbaa !194
  %89 = load ptr, ptr %3, align 8, !tbaa !148
  %90 = getelementptr inbounds nuw %struct.tx_helper, ptr %89, i32 0, i32 0
  %91 = load ptr, ptr %90, align 8, !tbaa !213
  %92 = getelementptr inbounds nuw %struct.ossl_quic_tx_packetiser_st, ptr %91, i32 0, i32 15
  %93 = load ptr, ptr %92, align 8, !tbaa !195
  call void %77(i32 noundef 1, i32 noundef 1, i32 noundef %78, ptr noundef %82, i64 noundef %83, ptr noundef %88, ptr noundef %93)
  store i32 0, ptr %5, align 4
  br label %94

94:                                               ; preds = %72, %57
  call void @llvm.lifetime.end.p0(i64 16, ptr %8) #7
  call void @llvm.lifetime.end.p0(i64 4, ptr %7) #7
  call void @llvm.lifetime.end.p0(i64 8, ptr %6) #7
  %95 = load i32, ptr %5, align 4
  switch i32 %95, label %104 [
    i32 0, label %96
  ]

96:                                               ; preds = %94
  br label %97

97:                                               ; preds = %96, %43, %36
  %98 = load i64, ptr %4, align 8, !tbaa !28
  %99 = load ptr, ptr %3, align 8, !tbaa !148
  %100 = getelementptr inbounds nuw %struct.tx_helper, ptr %99, i32 0, i32 3
  %101 = load i64, ptr %100, align 8, !tbaa !218
  %102 = add i64 %101, %98
  store i64 %102, ptr %100, align 8, !tbaa !218
  %103 = load ptr, ptr %3, align 8, !tbaa !148
  call void @tx_helper_end(ptr noundef %103, i32 noundef 1)
  store i32 1, ptr %2, align 4
  store i32 1, ptr %5, align 4
  br label %104

104:                                              ; preds = %97, %94, %34, %23, %16
  call void @llvm.lifetime.end.p0(i64 8, ptr %4) #7
  %105 = load i32, ptr %2, align 4
  ret i32 %105
}