; Function Attrs: nounwind uwtable
define internal fastcc range(i32 0, 2) i32 @tx_helper_commit(ptr noundef nonnull %0) unnamed_addr #3 {
  %2 = alloca i64, align 8
  %3 = alloca i64, align 8
  %4 = alloca %struct.PACKET, align 8
  call void @llvm.lifetime.start.p0(i64 8, ptr nonnull %2) #10
  store i64 0, ptr %2, align 8, !tbaa !49
  %5 = getelementptr inbounds nuw i8, ptr %0, i64 56
  %6 = getelementptr inbounds nuw i8, ptr %0, i64 120
  %7 = load i8, ptr %6, align 8
  %8 = and i8 %7, 1
  %.not = icmp eq i8 %8, 0
  br i1 %.not, label %88, label %9

9:                                                ; preds = %1
  %10 = getelementptr inbounds nuw i8, ptr %0, i64 64
  %11 = call i32 @WPACKET_get_total_written(ptr noundef nonnull %10, ptr noundef nonnull %2) #10
  %.not23 = icmp eq i32 %11, 0
  br i1 %.not23, label %12, label %15

12:                                               ; preds = %9
  call void @WPACKET_cleanup(ptr noundef nonnull %10) #10
  %13 = load i8, ptr %6, align 8
  %14 = and i8 %13, -2
  store i8 %14, ptr %6, align 8
  store ptr null, ptr %5, align 8, !tbaa !124
  br label %88

15:                                               ; preds = %9
  %16 = load ptr, ptr %5, align 8, !tbaa !124
  %17 = load i64, ptr %2, align 8, !tbaa !49
  %18 = load ptr, ptr %0, align 8, !tbaa !119
  %19 = getelementptr inbounds nuw i8, ptr %18, i64 552
  %20 = getelementptr inbounds nuw i8, ptr %0, i64 48
  %21 = load i32, ptr %20, align 8, !tbaa !120
  %22 = zext i32 %21 to i64
  %23 = getelementptr inbounds nuw [4 x %struct.txp_el], ptr %19, i64 0, i64 %22
  %24 = icmp eq i64 %17, 0
  br i1 %24, label %tx_helper_append_iovec.exit.thread, label %25

25:                                               ; preds = %15
  %26 = getelementptr inbounds nuw i8, ptr %0, i64 52
  %27 = load i8, ptr %26, align 4
  %28 = and i8 %27, 2
  %.not.i = icmp eq i8 %28, 0
  br i1 %.not.i, label %29, label %43, !prof !130

29:                                               ; preds = %25
  %30 = getelementptr inbounds nuw i8, ptr %0, i64 40
  %31 = load i64, ptr %30, align 8, !tbaa !123
  %32 = add i64 %31, 1
  %33 = getelementptr inbounds nuw i8, ptr %23, i64 24
  %34 = load i64, ptr %33, align 8, !tbaa !131
  %.not.i.i = icmp ult i64 %34, %32
  br i1 %.not.i.i, label %35, label %._crit_edge.i

._crit_edge.i:                                    ; preds = %29
  %.phi.trans.insert.i = getelementptr inbounds nuw i8, ptr %23, i64 16
  %.pre.i = load ptr, ptr %.phi.trans.insert.i, align 8, !tbaa !72
  br label %tx_helper_append_iovec.exit

35:                                               ; preds = %29
  %.not13.i.i = icmp eq i64 %34, 0
  %36 = shl i64 %34, 1
  %spec.select.i.i = select i1 %.not13.i.i, i64 8, i64 %36
  %37 = getelementptr inbounds nuw i8, ptr %23, i64 16
  %38 = load ptr, ptr %37, align 8, !tbaa !72
  %39 = shl i64 %spec.select.i.i, 4
  %40 = call ptr @CRYPTO_realloc(ptr noundef %38, i64 noundef %39, ptr noundef nonnull @.str, i32 noundef 3164) #10
  %41 = icmp eq ptr %40, null
  br i1 %41, label %43, label %42

42:                                               ; preds = %35
  store ptr %40, ptr %37, align 8, !tbaa !72
  store i64 %spec.select.i.i, ptr %33, align 8, !tbaa !131
  %.pre19.i = load i64, ptr %30, align 8, !tbaa !123
  %.pre20.i = add i64 %.pre19.i, 1
  %.pre.pre = load ptr, ptr %0, align 8, !tbaa !119
  br label %tx_helper_append_iovec.exit

43:                                               ; preds = %25, %35
  call void @WPACKET_cleanup(ptr noundef nonnull %10) #10
  %44 = load i8, ptr %6, align 8
  %45 = and i8 %44, -2
  store i8 %45, ptr %6, align 8
  store ptr null, ptr %5, align 8, !tbaa !124
  br label %88

tx_helper_append_iovec.exit:                      ; preds = %._crit_edge.i, %42
  %.pre = phi ptr [ %18, %._crit_edge.i ], [ %.pre.pre, %42 ]
  %.pre-phi.i = phi i64 [ %32, %._crit_edge.i ], [ %.pre20.i, %42 ]
  %46 = phi i64 [ %31, %._crit_edge.i ], [ %.pre19.i, %42 ]
  %47 = phi ptr [ %.pre.i, %._crit_edge.i ], [ %40, %42 ]
  %48 = getelementptr inbounds nuw %struct.ossl_qtx_iovec_st, ptr %47, i64 %46
  store ptr %16, ptr %48, align 8, !tbaa !132
  %49 = getelementptr inbounds nuw %struct.ossl_qtx_iovec_st, ptr %47, i64 %46, i32 1
  store i64 %17, ptr %49, align 8, !tbaa !134
  store i64 %.pre-phi.i, ptr %30, align 8, !tbaa !123
  %50 = getelementptr inbounds nuw i8, ptr %0, i64 16
  %51 = load i64, ptr %50, align 8, !tbaa !129
  %52 = add i64 %51, %17
  store i64 %52, ptr %50, align 8, !tbaa !129
  %.pre32 = load i64, ptr %2, align 8
  %53 = getelementptr inbounds nuw i8, ptr %.pre, i64 680
  %54 = load ptr, ptr %53, align 8, !tbaa !215
  %55 = icmp ne ptr %54, null
  %56 = icmp ne i64 %.pre32, 0
  %or.cond = select i1 %55, i1 %56, i1 false
  br i1 %or.cond, label %57, label %tx_helper_append_iovec.exit.thread

57:                                               ; preds = %tx_helper_append_iovec.exit
  call void @llvm.lifetime.start.p0(i64 8, ptr nonnull %3) #10
  call void @llvm.lifetime.start.p0(i64 16, ptr nonnull %4) #10
  %58 = icmp slt i64 %.pre32, 0
  br i1 %58, label %PACKET_buf_init.exit.thread, label %59

59:                                               ; preds = %57
  %60 = load ptr, ptr %5, align 8, !tbaa !124
  store ptr %60, ptr %4, align 8, !tbaa !221
  %61 = getelementptr inbounds nuw i8, ptr %4, i64 8
  store i64 %.pre32, ptr %61, align 8, !tbaa !223
  %62 = call i32 @ossl_quic_wire_peek_frame_header(ptr noundef nonnull %4, ptr noundef nonnull %3, ptr noundef null) #10
  %.not26 = icmp eq i32 %62, 0
  br i1 %.not26, label %PACKET_buf_init.exit.thread, label %65

PACKET_buf_init.exit.thread:                      ; preds = %57, %59
  call void @WPACKET_cleanup(ptr noundef nonnull %10) #10
  %63 = load i8, ptr %6, align 8
  %64 = and i8 %63, -2
  store i8 %64, ptr %6, align 8
  store ptr null, ptr %5, align 8, !tbaa !124
  call void @llvm.lifetime.end.p0(i64 16, ptr nonnull %4) #10
  call void @llvm.lifetime.end.p0(i64 8, ptr nonnull %3) #10
  br label %88

65:                                               ; preds = %59
  %66 = load i64, ptr %3, align 8, !tbaa !49
  %67 = icmp eq i64 %66, 0
  br i1 %67, label %.critedge, label %68

68:                                               ; preds = %65
  %69 = and i64 %66, -8
  %70 = icmp eq i64 %69, 8
  %71 = icmp eq i64 %66, 6
  %or.cond3 = or i1 %71, %70
  %spec.select = select i1 %or.cond3, i32 515, i32 514
  br label %.critedge

.critedge:                                        ; preds = %68, %65
  %.0 = phi i32 [ 516, %65 ], [ %spec.select, %68 ]
  %72 = load ptr, ptr %0, align 8, !tbaa !119
  %73 = getelementptr inbounds nuw i8, ptr %72, i64 680
  %74 = load ptr, ptr %73, align 8, !tbaa !215
  %75 = load ptr, ptr %5, align 8, !tbaa !124
  %76 = load i64, ptr %2, align 8, !tbaa !49
  %77 = getelementptr inbounds nuw i8, ptr %72, i64 696
  %78 = load ptr, ptr %77, align 8, !tbaa !216
  %79 = getelementptr inbounds nuw i8, ptr %72, i64 688
  %80 = load ptr, ptr %79, align 8, !tbaa !217
  call void %74(i32 noundef 1, i32 noundef 1, i32 noundef %.0, ptr noundef %75, i64 noundef %76, ptr noundef %78, ptr noundef %80) #10
  call void @llvm.lifetime.end.p0(i64 16, ptr nonnull %4) #10
  call void @llvm.lifetime.end.p0(i64 8, ptr nonnull %3) #10
  %.pre33 = load i64, ptr %2, align 8, !tbaa !49
  br label %tx_helper_append_iovec.exit.thread

tx_helper_append_iovec.exit.thread:               ; preds = %15, %.critedge, %tx_helper_append_iovec.exit
  %81 = phi i64 [ %.pre33, %.critedge ], [ %.pre32, %tx_helper_append_iovec.exit ], [ 0, %15 ]
  %82 = getelementptr inbounds nuw i8, ptr %0, i64 24
  %83 = load i64, ptr %82, align 8, !tbaa !220
  %84 = add i64 %83, %81
  store i64 %84, ptr %82, align 8, !tbaa !220
  %85 = call i32 @WPACKET_finish(ptr noundef nonnull %10) #10
  %86 = load i8, ptr %6, align 8
  %87 = and i8 %86, -2
  store i8 %87, ptr %6, align 8
  store ptr null, ptr %5, align 8, !tbaa !124
  br label %88

88:                                               ; preds = %PACKET_buf_init.exit.thread, %1, %tx_helper_append_iovec.exit.thread, %43, %12
  %.021 = phi i32 [ 1, %tx_helper_append_iovec.exit.thread ], [ 0, %PACKET_buf_init.exit.thread ], [ 0, %43 ], [ 0, %12 ], [ 0, %1 ]
  call void @llvm.lifetime.end.p0(i64 8, ptr nonnull %2) #10
  ret i32 %.021
}